target datalayout = "e-m:e-p270:32:32-p271:32:32-p272:64:64-i64:64-i128:128-f80:128-n8:16:32:64-S128"
target triple = "x86_64-pc-linux-gnu"

%struct.AVFormatContext = type { ptr, ptr, ptr, ptr, ptr, i32, i32, ptr, i32, ptr, i32, ptr, ptr, i64, i64, i64, i32, i32, i32, i64, i64, ptr, i32, i32, ptr, i32, i32, i32, i32, ptr, i64, i32, i32, %struct.AVIOInterruptCB, i32, i32, i32, i32, i64, i32, i32, i32, i32, i32, i32, i32, i32, i32, i32, i32, i32, i64, i32, i32, i32, i32, i32, ptr, ptr, ptr, ptr, i32, ptr, ptr, ptr, ptr, i32, ptr, ptr, i64, ptr, ptr, ptr, i64 }
%struct.AVIOInterruptCB = type { ptr, ptr }
%struct.BVID_DemuxContext = type { i32, i32, i32, i32, i32, i32, i32, i32, [768 x i8], i32 }

; Function Attrs: nounwind uwtable
define internal i32 @vid_read_header(ptr noundef %0) #0 {
  %2 = alloca i32, align 4
  %3 = alloca ptr, align 8
  %4 = alloca ptr, align 8
  %5 = alloca ptr, align 8
  %6 = alloca i32, align 4
  %7 = alloca i32, align 4
  store ptr %0, ptr %3, align 8, !tbaa !14
  call void @llvm.lifetime.start.p0(i64 8, ptr %4) #5
  %8 = load ptr, ptr %3, align 8, !tbaa !14
  %9 = getelementptr inbounds nuw %struct.AVFormatContext, ptr %8, i32 0, i32 3
  %10 = load ptr, ptr %9, align 8, !tbaa !16
  store ptr %10, ptr %4, align 8, !tbaa !31
  call void @llvm.lifetime.start.p0(i64 8, ptr %5) #5
  %11 = load ptr, ptr %3, align 8, !tbaa !14
  %12 = getelementptr inbounds nuw %struct.AVFormatContext, ptr %11, i32 0, i32 4
  %13 = load ptr, ptr %12, align 8, !tbaa !33
  store ptr %13, ptr %5, align 8, !tbaa !34
  call void @llvm.lifetime.start.p0(i64 4, ptr %6) #5
  %14 = load ptr, ptr %5, align 8, !tbaa !34
  %15 = call i64 @avio_skip(ptr noundef %14, i64 noundef 5)
  %16 = load ptr, ptr %5, align 8, !tbaa !34
  %17 = call i32 @avio_rl16(ptr noundef %16)
  %18 = load ptr, ptr %4, align 8, !tbaa !31
  %19 = getelementptr inbounds nuw %struct.BVID_DemuxContext, ptr %18, i32 0, i32 0
  store i32 %17, ptr %19, align 4, !tbaa !35
  %20 = load ptr, ptr %5, align 8, !tbaa !34
  %21 = call i32 @avio_rl16(ptr noundef %20)
  %22 = load ptr, ptr %4, align 8, !tbaa !31
  %23 = getelementptr inbounds nuw %struct.BVID_DemuxContext, ptr %22, i32 0, i32 2
  store i32 %21, ptr %23, align 4, !tbaa !37
  %24 = load ptr, ptr %5, align 8, !tbaa !34
  %25 = call i32 @avio_rl16(ptr noundef %24)
  %26 = load ptr, ptr %4, align 8, !tbaa !31
  %27 = getelementptr inbounds nuw %struct.BVID_DemuxContext, ptr %26, i32 0, i32 3
  store i32 %25, ptr %27, align 4, !tbaa !38
  %28 = load ptr, ptr %5, align 8, !tbaa !34
  %29 = call i32 @avio_rl16(ptr noundef %28)
  %30 = load ptr, ptr %4, align 8, !tbaa !31
  %31 = getelementptr inbounds nuw %struct.BVID_DemuxContext, ptr %30, i32 0, i32 4
  store i32 %29, ptr %31, align 4, !tbaa !39
  %32 = load ptr, ptr %5, align 8, !tbaa !34
  %33 = call i32 @avio_rl16(ptr noundef %32)
  %34 = load ptr, ptr %4, align 8, !tbaa !31
  %35 = getelementptr inbounds nuw %struct.BVID_DemuxContext, ptr %34, i32 0, i32 2
  %36 = load i32, ptr %35, align 4, !tbaa !37
  %37 = load ptr, ptr %4, align 8, !tbaa !31
  %38 = getelementptr inbounds nuw %struct.BVID_DemuxContext, ptr %37, i32 0, i32 3
  %39 = load i32, ptr %38, align 4, !tbaa !38
  %40 = load ptr, ptr %3, align 8, !tbaa !14
  %41 = call i32 @av_image_check_size(i32 noundef %36, i32 noundef %39, i32 noundef 0, ptr noundef %40)
  store i32 %41, ptr %6, align 4, !tbaa !40
  %42 = load i32, ptr %6, align 4, !tbaa !40
  %43 = icmp slt i32 %42, 0
  br i1 %43, label %44, label %46

44:                                               ; preds = %1
  %45 = load i32, ptr %6, align 4, !tbaa !40
  store i32 %45, ptr %2, align 4
  store i32 1, ptr %7, align 4
  br label %57

46:                                               ; preds = %1
  %47 = load ptr, ptr %4, align 8, !tbaa !31
  %48 = getelementptr inbounds nuw %struct.BVID_DemuxContext, ptr %47, i32 0, i32 5
  store i32 -1, ptr %48, align 4, !tbaa !41
  %49 = load ptr, ptr %4, align 8, !tbaa !31
  %50 = getelementptr inbounds nuw %struct.BVID_DemuxContext, ptr %49, i32 0, i32 6
  store i32 -1, ptr %50, align 4, !tbaa !42
  %51 = load ptr, ptr %4, align 8, !tbaa !31
  %52 = getelementptr inbounds nuw %struct.BVID_DemuxContext, ptr %51, i32 0, i32 1
  store i32 11111, ptr %52, align 4, !tbaa !43
  %53 = load ptr, ptr %3, align 8, !tbaa !14
  %54 = getelementptr inbounds nuw %struct.AVFormatContext, ptr %53, i32 0, i32 5
  %55 = load i32, ptr %54, align 8, !tbaa !44
  %56 = or i32 %55, 1
  store i32 %56, ptr %54, align 8, !tbaa !44
  store i32 0, ptr %2, align 4
  store i32 1, ptr %7, align 4
  br label %57

57:                                               ; preds = %46, %44
  call void @llvm.lifetime.end.p0(i64 4, ptr %6) #5
  call void @llvm.lifetime.end.p0(i64 8, ptr %5) #5
  call void @llvm.lifetime.end.p0(i64 8, ptr %4) #5
  %58 = load i32, ptr %2, align 4
  ret i32 %58
}