; Function Attrs: nounwind uwtable
define internal range(i32 -2147483648, 1) i32 @vid_read_header(ptr noundef %0) #1 {
  %2 = getelementptr inbounds nuw i8, ptr %0, i64 24
  %3 = load ptr, ptr %2, align 8, !tbaa !12
  %4 = getelementptr inbounds nuw i8, ptr %0, i64 32
  %5 = load ptr, ptr %4, align 8, !tbaa !27
  %6 = tail call i64 @avio_skip(ptr noundef %5, i64 noundef 5) #5
  %7 = tail call i32 @avio_rl16(ptr noundef %5) #5
  store i32 %7, ptr %3, align 4, !tbaa !28
  %8 = tail call i32 @avio_rl16(ptr noundef %5) #5
  %9 = getelementptr inbounds nuw i8, ptr %3, i64 8
  store i32 %8, ptr %9, align 4, !tbaa !30
  %10 = tail call i32 @avio_rl16(ptr noundef %5) #5
  %11 = getelementptr inbounds nuw i8, ptr %3, i64 12
  store i32 %10, ptr %11, align 4, !tbaa !31
  %12 = tail call i32 @avio_rl16(ptr noundef %5) #5
  %13 = getelementptr inbounds nuw i8, ptr %3, i64 16
  store i32 %12, ptr %13, align 4, !tbaa !32
  %14 = tail call i32 @avio_rl16(ptr noundef %5) #5
  %15 = load i32, ptr %9, align 4, !tbaa !30
  %16 = load i32, ptr %11, align 4, !tbaa !31
  %17 = tail call i32 @av_image_check_size(i32 noundef %15, i32 noundef %16, i32 noundef 0, ptr noundef %0) #5
  %18 = icmp slt i32 %17, 0
  br i1 %18, label %26, label %19

19:                                               ; preds = %1
  %20 = getelementptr inbounds nuw i8, ptr %3, i64 20
  store i32 -1, ptr %20, align 4, !tbaa !33
  %21 = getelementptr inbounds nuw i8, ptr %3, i64 24
  store i32 -1, ptr %21, align 4, !tbaa !34
  %22 = getelementptr inbounds nuw i8, ptr %3, i64 4
  store i32 11111, ptr %22, align 4, !tbaa !35
  %23 = getelementptr inbounds nuw i8, ptr %0, i64 40
  %24 = load i32, ptr %23, align 8, !tbaa !36
  %25 = or i32 %24, 1
  store i32 %25, ptr %23, align 8, !tbaa !36
  br label %26

26:                                               ; preds = %1, %19
  %.0 = phi i32 [ 0, %19 ], [ %17, %1 ]
  ret i32 %.0
}